; Function Attrs: nounwind uwtable
define hidden void @zim_PDOStatement_nextRowset(ptr noundef readonly captures(none) %0, ptr noundef writeonly captures(none) %1) #0 {
  %3 = getelementptr inbounds nuw i8, ptr %0, i64 44
  %4 = load i32, ptr %3, align 4, !tbaa !37
  %.not = icmp eq i32 %4, 0
  br i1 %.not, label %6, label %5, !prof !104

5:                                                ; preds = %2
  tail call void @zend_wrong_parameters_none_error() #17
  br label %37

6:                                                ; preds = %2
  %7 = getelementptr inbounds nuw i8, ptr %0, i64 32
  %8 = load ptr, ptr %7, align 8, !tbaa !37
  %9 = getelementptr inbounds i8, ptr %8, i64 -160
  %10 = getelementptr inbounds i8, ptr %8, i64 -48
  %11 = load ptr, ptr %10, align 8, !tbaa !27
  %.not15 = icmp eq ptr %11, null
  br i1 %.not15, label %12, label %20

12:                                               ; preds = %6
  %13 = getelementptr inbounds nuw i8, ptr %8, i64 16
  %14 = load ptr, ptr %13, align 8, !tbaa !45
  %15 = getelementptr inbounds nuw i8, ptr %14, i64 8
  %16 = load ptr, ptr %15, align 8, !tbaa !46
  %17 = getelementptr inbounds nuw i8, ptr %16, i64 24
  tail call void (ptr, ptr, ...) @zend_throw_error(ptr noundef null, ptr noundef nonnull @.str, ptr noundef nonnull %17) #17
  %18 = load ptr, ptr getelementptr inbounds nuw (i8, ptr @executor_globals, i64 960), align 8, !tbaa !59
  %19 = icmp ne ptr %18, null
  tail call void @llvm.assume(i1 %19)
  br label %37

20:                                               ; preds = %6
  %21 = load ptr, ptr %9, align 8, !tbaa !24
  %22 = getelementptr inbounds nuw i8, ptr %21, i64 72
  %23 = load ptr, ptr %22, align 8, !tbaa !146
  %.not16 = icmp eq ptr %23, null
  br i1 %.not16, label %24, label %26

24:                                               ; preds = %20
  tail call void @pdo_raise_impl_error(ptr noundef nonnull %11, ptr noundef nonnull %9, ptr noundef nonnull @.str.12, ptr noundef nonnull @.str.28) #17
  %25 = getelementptr inbounds nuw i8, ptr %1, i64 8
  store i32 2, ptr %25, align 8, !tbaa !37
  br label %37

26:                                               ; preds = %20
  %27 = getelementptr inbounds i8, ptr %8, i64 -144
  tail call void @llvm.memcpy.p0.p0.i64(ptr noundef nonnull align 8 dereferenceable(6) %27, ptr noundef nonnull align 1 dereferenceable(6) @.str.1, i64 6, i1 false)
  %28 = tail call fastcc zeroext i1 @pdo_stmt_do_next_rowset(ptr noundef nonnull %9)
  br i1 %28, label %35, label %29

29:                                               ; preds = %26
  %30 = tail call i32 @strcmp(ptr noundef nonnull dereferenceable(1) %27, ptr noundef nonnull dereferenceable(6) @.str.1) #18
  %.not17 = icmp eq i32 %30, 0
  br i1 %.not17, label %33, label %31

31:                                               ; preds = %29
  %32 = load ptr, ptr %10, align 8, !tbaa !27
  tail call void @pdo_handle_error(ptr noundef %32, ptr noundef nonnull %9) #17
  br label %33

33:                                               ; preds = %31, %29
  %34 = getelementptr inbounds nuw i8, ptr %1, i64 8
  store i32 2, ptr %34, align 8, !tbaa !37
  br label %37

35:                                               ; preds = %26
  %36 = getelementptr inbounds nuw i8, ptr %1, i64 8
  store i32 3, ptr %36, align 8, !tbaa !37
  br label %37

37:                                               ; preds = %12, %24, %33, %35, %5
  ret void
}